target datalayout = "e-m:e-p270:32:32-p271:32:32-p272:64:64-i64:64-i128:128-f80:128-n8:16:32:64-S128"
target triple = "x86_64-pc-linux-gnu"

%struct.pg_compress_specification = type { i32, i32, i32, i32, i8, ptr }
%struct.CompressFileHandle = type { ptr, ptr, ptr, ptr, ptr, ptr, ptr, ptr, ptr, %struct.pg_compress_specification, ptr }

@.str.8 = private unnamed_addr constant [35 x i8] c"could not read from input file: %s\00", align 1

; Function Attrs: nounwind uwtable
define internal zeroext i1 @Gzip_read(ptr noundef %0, i64 noundef %1, ptr noundef %2, ptr noundef %3) #0 {
  %5 = alloca ptr, align 8
  %6 = alloca i64, align 8
  %7 = alloca ptr, align 8
  %8 = alloca ptr, align 8
  %9 = alloca ptr, align 8
  %10 = alloca i32, align 4
  %11 = alloca i32, align 4
  %12 = alloca ptr, align 8
  store ptr %0, ptr %5, align 8
  store i64 %1, ptr %6, align 8
  store ptr %2, ptr %7, align 8
  store ptr %3, ptr %8, align 8
  call void @llvm.lifetime.start.p0(i64 8, ptr %9) #7
  %13 = load ptr, ptr %8, align 8
  %14 = getelementptr inbounds nuw %struct.CompressFileHandle, ptr %13, i32 0, i32 10
  %15 = load ptr, ptr %14, align 8
  store ptr %15, ptr %9, align 8
  call void @llvm.lifetime.start.p0(i64 4, ptr %10) #7
  %16 = load ptr, ptr %9, align 8
  %17 = load ptr, ptr %5, align 8
  %18 = load i64, ptr %6, align 8
  %19 = trunc i64 %18 to i32
  %20 = call i32 @gzread(ptr noundef %16, ptr noundef %17, i32 noundef %19)
  store i32 %20, ptr %10, align 4
  %21 = load i32, ptr %10, align 4
  %22 = icmp sle i32 %21, 0
  br i1 %22, label %23, label %43

23:                                               ; preds = %4
  %24 = load ptr, ptr %9, align 8
  %25 = call i32 @gzeof(ptr noundef %24)
  %26 = icmp ne i32 %25, 0
  br i1 %26, label %43, label %27

27:                                               ; preds = %23
  call void @llvm.lifetime.start.p0(i64 4, ptr %11) #7
  call void @llvm.lifetime.start.p0(i64 8, ptr %12) #7
  %28 = load ptr, ptr %9, align 8
  %29 = call ptr @gzerror(ptr noundef %28, ptr noundef %11)
  store ptr %29, ptr %12, align 8
  br label %30

30:                                               ; preds = %27
  %31 = load i32, ptr %11, align 4
  %32 = icmp eq i32 %31, -1
  br i1 %32, label %33, label %37

33:                                               ; preds = %30
  %34 = call ptr @__errno_location() #9
  %35 = load i32, ptr %34, align 4
  %36 = call ptr @pg_strerror(i32 noundef %35)
  br label %39

37:                                               ; preds = %30
  %38 = load ptr, ptr %12, align 8
  br label %39

39:                                               ; preds = %37, %33
  %40 = phi ptr [ %36, %33 ], [ %38, %37 ]
  call void (i32, i32, ptr, ...) @pg_log_generic(i32 noundef 4, i32 noundef 0, ptr noundef @.str.8, ptr noundef %40)
  call void @exit_nicely(i32 noundef 1) #8
  unreachable

41:                                               ; No predecessors!
  br label %42

42:                                               ; preds = %41
  call void @llvm.lifetime.end.p0(i64 8, ptr %12) #7
  call void @llvm.lifetime.end.p0(i64 4, ptr %11) #7
  br label %43

43:                                               ; preds = %42, %23, %4
  %44 = load ptr, ptr %7, align 8
  %45 = icmp ne ptr %44, null
  br i1 %45, label %46, label %50

46:                                               ; preds = %43
  %47 = load i32, ptr %10, align 4
  %48 = sext i32 %47 to i64
  %49 = load ptr, ptr %7, align 8
  store i64 %48, ptr %49, align 8
  br label %50

50:                                               ; preds = %46, %43
  call void @llvm.lifetime.end.p0(i64 4, ptr %10) #7
  call void @llvm.lifetime.end.p0(i64 8, ptr %9) #7
  ret i1 true
}