; Function Attrs: nounwind uwtable
define internal noundef zeroext i1 @Gzip_read(ptr noundef %0, i64 noundef %1, ptr noundef writeonly captures(address_is_null) %2, ptr noundef readonly captures(none) %3) #0 {
  %5 = alloca i32, align 4
  %6 = getelementptr inbounds nuw i8, ptr %3, i64 104
  %7 = load ptr, ptr %6, align 8
  %8 = trunc i64 %1 to i32
  %9 = tail call i32 @gzread(ptr noundef %7, ptr noundef %0, i32 noundef %8) #11
  %10 = icmp slt i32 %9, 1
  br i1 %10, label %11, label %23

11:                                               ; preds = %4
  %12 = tail call i32 @gzeof(ptr noundef %7) #11
  %.not = icmp eq i32 %12, 0
  br i1 %.not, label %13, label %23

13:                                               ; preds = %11
  call void @llvm.lifetime.start.p0(i64 4, ptr nonnull %5) #11
  %14 = call ptr @gzerror(ptr noundef %7, ptr noundef nonnull %5) #11
  %15 = load i32, ptr %5, align 4
  %16 = icmp eq i32 %15, -1
  br i1 %16, label %17, label %21

17:                                               ; preds = %13
  %18 = tail call ptr @__errno_location() #13
  %19 = load i32, ptr %18, align 4
  %20 = call ptr @pg_strerror(i32 noundef %19) #11
  br label %21

21:                                               ; preds = %13, %17
  %22 = phi ptr [ %20, %17 ], [ %14, %13 ]
  call void (i32, i32, ptr, ...) @pg_log_generic(i32 noundef 4, i32 noundef 0, ptr noundef nonnull @.str.8, ptr noundef %22) #11
  call void @exit_nicely(i32 noundef 1) #12
  unreachable

23:                                               ; preds = %11, %4
  %.not10 = icmp eq ptr %2, null
  br i1 %.not10, label %26, label %24

24:                                               ; preds = %23
  %25 = sext i32 %9 to i64
  store i64 %25, ptr %2, align 8
  br label %26

26:                                               ; preds = %24, %23
  ret i1 true
}